; Function Attrs: mustprogress nofree norecurse nosync nounwind memory(argmem: readwrite) uwtable
define internal void @_ZN2cv12cpu_baselineL11cvtScale16fEPKhmS2_mPhmNS_5Size_IiEEPv(ptr noundef readonly captures(none) %0, i64 noundef %1, ptr readnone captures(none) %2, i64 %3, ptr noundef writeonly captures(none) %4, i64 noundef %5, i64 %6, ptr noundef readonly captures(none) %7) #2 {
  %9 = load double, ptr %7, align 8, !tbaa !7
  %10 = fptrunc double %9 to float
  %11 = getelementptr inbounds nuw i8, ptr %7, i64 8
  %12 = load double, ptr %11, align 8, !tbaa !7
  %13 = fptrunc double %12 to float
  %.sroa.2.0.extract.shift.i = lshr i64 %6, 32
  %.sroa.2.0.extract.trunc.i = trunc nuw i64 %.sroa.2.0.extract.shift.i to i32
  %14 = lshr i64 %1, 1
  %15 = lshr i64 %5, 1
  %16 = icmp sgt i32 %.sroa.2.0.extract.trunc.i, 0
  %.sroa.015.0.extract.trunc.i = trunc i64 %6 to i32
  %17 = icmp sgt i32 %.sroa.015.0.extract.trunc.i, 0
  %or.cond.i = and i1 %17, %16
  br i1 %or.cond.i, label %.preheader.us.preheader.i, label %_ZN2cv12cpu_baseline8cvt1_32fINS_6hfloatES2_EEvPKT_mPT0_mNS_5Size_IiEEff.exit

.preheader.us.preheader.i:                        ; preds = %8
  %wide.trip.count.i = and i64 %6, 2147483647
  br label %.preheader.us.i

.preheader.us.i:                                  ; preds = %._crit_edge.us.i, %.preheader.us.preheader.i
  %.022.us.i = phi ptr [ %65, %._crit_edge.us.i ], [ %0, %.preheader.us.preheader.i ]
  %.01721.us.i = phi i32 [ %64, %._crit_edge.us.i ], [ 0, %.preheader.us.preheader.i ]
  %.01820.us.i = phi ptr [ %66, %._crit_edge.us.i ], [ %4, %.preheader.us.preheader.i ]
  br label %18

18:                                               ; preds = %_ZN2cvL13saturate_castINS_6hfloatEEET_f.exit.us.i, %.preheader.us.i
  %indvars.iv.i = phi i64 [ 0, %.preheader.us.i ], [ %indvars.iv.next.i, %_ZN2cvL13saturate_castINS_6hfloatEEET_f.exit.us.i ]
  %19 = getelementptr inbounds nuw %"class.cv::hfloat", ptr %.022.us.i, i64 %indvars.iv.i
  %20 = load i16, ptr %19, align 2, !tbaa !45
  %21 = zext i16 %20 to i32
  %22 = shl nuw nsw i32 %21, 13
  %23 = and i32 %22, 268427264
  %24 = add nuw nsw i32 %23, 939524096
  %25 = and i32 %21, 31744
  switch i32 %25, label %_ZNK2cv6hfloatcvfEv.exit.us.i [
    i32 31744, label %31
    i32 0, label %26
  ]

26:                                               ; preds = %18
  %27 = add nuw nsw i32 %23, 947912704
  %28 = bitcast i32 %27 to float
  %29 = fadd float %28, 0xBF10000000000000
  %30 = bitcast float %29 to i32
  br label %_ZNK2cv6hfloatcvfEv.exit.us.i

31:                                               ; preds = %18
  %32 = or i32 %22, 1879048192
  br label %_ZNK2cv6hfloatcvfEv.exit.us.i

_ZNK2cv6hfloatcvfEv.exit.us.i:                    ; preds = %31, %26, %18
  %33 = phi i32 [ %32, %31 ], [ %30, %26 ], [ %24, %18 ]
  %.signext.i.us.i = sext i16 %20 to i32
  %34 = and i32 %.signext.i.us.i, -2147483648
  %35 = or i32 %33, %34
  %36 = bitcast i32 %35 to float
  %37 = tail call float @llvm.fmuladd.f32(float %36, float %10, float %13)
  %38 = tail call float @llvm.fabs.f32(float %37)
  %39 = bitcast float %38 to i32
  %40 = icmp samesign ugt i32 %39, 1199570943
  br i1 %40, label %54, label %41

41:                                               ; preds = %_ZNK2cv6hfloatcvfEv.exit.us.i
  %42 = icmp samesign ult i32 %39, 947912704
  br i1 %42, label %50, label %43

43:                                               ; preds = %41
  %44 = add nuw nsw i32 %39, 134221823
  %45 = lshr i32 %39, 13
  %46 = and i32 %45, 1
  %47 = add nuw nsw i32 %44, %46
  %48 = lshr i32 %47, 13
  %49 = trunc i32 %48 to i16
  br label %_ZN2cvL13saturate_castINS_6hfloatEEET_f.exit.us.i

50:                                               ; preds = %41
  %51 = fadd float %38, 5.000000e-01
  %52 = bitcast float %51 to i32
  %53 = trunc i32 %52 to i16
  br label %_ZN2cvL13saturate_castINS_6hfloatEEET_f.exit.us.i

54:                                               ; preds = %_ZNK2cv6hfloatcvfEv.exit.us.i
  %55 = icmp samesign ugt i32 %39, 2139095040
  %56 = select i1 %55, i16 32256, i16 31744
  br label %_ZN2cvL13saturate_castINS_6hfloatEEET_f.exit.us.i

_ZN2cvL13saturate_castINS_6hfloatEEET_f.exit.us.i: ; preds = %54, %50, %43
  %57 = phi i16 [ %53, %50 ], [ %49, %43 ], [ %56, %54 ]
  %58 = bitcast float %37 to i32
  %59 = lshr i32 %58, 16
  %60 = trunc nuw i32 %59 to i16
  %61 = and i16 %60, -32768
  %62 = or i16 %57, %61
  %63 = getelementptr inbounds nuw %"class.cv::hfloat", ptr %.01820.us.i, i64 %indvars.iv.i
  store i16 %62, ptr %63, align 2, !tbaa !15
  %indvars.iv.next.i = add nuw nsw i64 %indvars.iv.i, 1
  %exitcond.not.i = icmp eq i64 %indvars.iv.next.i, %wide.trip.count.i
  br i1 %exitcond.not.i, label %._crit_edge.us.i, label %18, !llvm.loop !159

._crit_edge.us.i:                                 ; preds = %_ZN2cvL13saturate_castINS_6hfloatEEET_f.exit.us.i
  %64 = add nuw nsw i32 %.01721.us.i, 1
  %65 = getelementptr inbounds nuw %"class.cv::hfloat", ptr %.022.us.i, i64 %14
  %66 = getelementptr inbounds nuw %"class.cv::hfloat", ptr %.01820.us.i, i64 %15
  %exitcond26.not.i = icmp eq i32 %64, %.sroa.2.0.extract.trunc.i
  br i1 %exitcond26.not.i, label %_ZN2cv12cpu_baseline8cvt1_32fINS_6hfloatES2_EEvPKT_mPT0_mNS_5Size_IiEEff.exit, label %.preheader.us.i, !llvm.loop !160

_ZN2cv12cpu_baseline8cvt1_32fINS_6hfloatES2_EEvPKT_mPT0_mNS_5Size_IiEEff.exit: ; preds = %._crit_edge.us.i, %8
  ret void
}